; Function Attrs: mustprogress uwtable
define hidden noundef zeroext i1 @_ZNK3seq6skolem9is_skolemERK6symbolPK4expr(ptr noundef nonnull readonly align 8 captures(none) dereferenceable(336) %0, ptr noundef nonnull readonly align 8 captures(none) dereferenceable(8) %1, ptr noundef readonly captures(none) %2) local_unnamed_addr #3 align 2 {
  %4 = getelementptr inbounds nuw i8, ptr %0, i64 40
  %5 = load i32, ptr %4, align 8, !tbaa !30
  %6 = getelementptr inbounds nuw i8, ptr %2, i64 4
  %7 = load i32, ptr %6, align 4
  %8 = and i32 %7, 65535
  %9 = icmp eq i32 %8, 0
  br i1 %9, label %10, label %_ZNK8seq_util9is_skolemEPK4expr.exit.thread

10:                                               ; preds = %3
  %11 = getelementptr inbounds nuw i8, ptr %2, i64 16
  %12 = load ptr, ptr %11, align 8, !tbaa !141
  %13 = getelementptr inbounds nuw i8, ptr %12, i64 24
  %14 = load ptr, ptr %13, align 8, !tbaa !146
  %.not.i.i.i.i = icmp eq ptr %14, null
  br i1 %.not.i.i.i.i, label %_ZNK8seq_util9is_skolemEPK4expr.exit.thread, label %_ZNK8seq_util9is_skolemEPK4expr.exit

_ZNK8seq_util9is_skolemEPK4expr.exit:             ; preds = %10
  %15 = load i32, ptr %14, align 8, !tbaa !149
  %16 = icmp eq i32 %15, %5
  %17 = getelementptr inbounds nuw i8, ptr %14, i64 4
  %18 = load i32, ptr %17, align 4
  %19 = icmp eq i32 %18, 67
  %20 = select i1 %16, i1 %19, i1 false
  br i1 %20, label %21, label %_ZNK8seq_util9is_skolemEPK4expr.exit.thread

21:                                               ; preds = %_ZNK8seq_util9is_skolemEPK4expr.exit
  %22 = getelementptr inbounds nuw i8, ptr %14, i64 8
  %23 = load ptr, ptr %22, align 8, !tbaa !153
  %24 = getelementptr inbounds nuw i8, ptr %23, i64 8
  %25 = load i8, ptr %24, align 8, !tbaa !72
  %.not.i.i.i = icmp eq i8 %25, 2
  br i1 %.not.i.i.i, label %_ZNK9parameter10get_symbolEv.exit, label %26

26:                                               ; preds = %21
  %27 = tail call ptr @__cxa_allocate_exception(i64 16) #20
  store ptr getelementptr inbounds nuw inrange(-16, 24) (i8, ptr @_ZTVSt18bad_variant_access, i64 16), ptr %27, align 8, !tbaa !154
  %28 = getelementptr inbounds nuw i8, ptr %27, i64 8
  store ptr @.str.28, ptr %28, align 8, !tbaa !156
  tail call void @__cxa_throw(ptr nonnull %27, ptr nonnull @_ZTISt18bad_variant_access, ptr nonnull @_ZNSt9exceptionD2Ev) #22
  unreachable

_ZNK9parameter10get_symbolEv.exit:                ; preds = %21
  %.sroa.0.0.copyload.i = load ptr, ptr %23, align 8, !tbaa !71
  %29 = load ptr, ptr %1, align 8, !tbaa !159
  %30 = icmp eq ptr %.sroa.0.0.copyload.i, %29
  br label %_ZNK8seq_util9is_skolemEPK4expr.exit.thread

_ZNK8seq_util9is_skolemEPK4expr.exit.thread:      ; preds = %10, %3, %_ZNK9parameter10get_symbolEv.exit, %_ZNK8seq_util9is_skolemEPK4expr.exit
  %31 = phi i1 [ false, %_ZNK8seq_util9is_skolemEPK4expr.exit ], [ %30, %_ZNK9parameter10get_symbolEv.exit ], [ false, %3 ], [ false, %10 ]
  ret i1 %31
}